; Function Attrs: mustprogress nounwind uwtable
define dso_local noundef zeroext i1 @_ZN8tinygltf10FileExistsERKNSt7__cxx1112basic_stringIcSt11char_traitsIcESaIcEEEPv(ptr noundef nonnull align 8 dereferenceable(32) %0, ptr nocapture readnone %1) #4 {
  %3 = tail call noundef ptr @_ZNKSt7__cxx1112basic_stringIcSt11char_traitsIcESaIcEE5c_strEv(ptr noundef nonnull align 8 dereferenceable(32) %0) #30
  %4 = tail call noalias ptr @fopen(ptr noundef %3, ptr noundef nonnull @.str.2)
  %.not = icmp ne ptr %4, null
  br i1 %.not, label %5, label %7

5:                                                ; preds = %2
  %6 = tail call i32 @fclose(ptr noundef nonnull %4)
  br label %7

7:                                                ; preds = %2, %5
  ret i1 %.not
}